target datalayout = "e-m:e-p270:32:32-p271:32:32-p272:64:64-i64:64-i128:128-f80:128-n8:16:32:64-S128"
target triple = "x86_64-pc-linux-gnu"

%struct._object = type { %union.anon, ptr }
%union.anon = type { i64 }

@_Py_NoneStruct = external global %struct._object, align 8
@PyExc_ValueError = external global ptr, align 8
@.str.19 = private unnamed_addr constant [11 x i8] c"set_events\00", align 1
@.str.27 = private unnamed_addr constant [42 x i8] c"invalid tool %d (must be between 0 and 5)\00", align 1
@.str.32 = private unnamed_addr constant [23 x i8] c"invalid event set 0x%x\00", align 1
@.str.33 = private unnamed_addr constant [52 x i8] c"cannot set C_RETURN or C_RAISE events independently\00", align 1

; Function Attrs: nounwind uwtable
define internal i32 @check_valid_tool(i32 noundef %0) #0 {
  %2 = alloca i32, align 4
  %3 = alloca i32, align 4
  store i32 %0, ptr %3, align 4, !tbaa !9
  %4 = load i32, ptr %3, align 4, !tbaa !9
  %5 = icmp slt i32 %4, 0
  br i1 %5, label %9, label %6

6:                                                ; preds = %1
  %7 = load i32, ptr %3, align 4, !tbaa !9
  %8 = icmp sge i32 %7, 6
  br i1 %8, label %9, label %13

9:                                                ; preds = %6, %1
  %10 = load ptr, ptr @PyExc_ValueError, align 8, !tbaa !53
  %11 = load i32, ptr %3, align 4, !tbaa !9
  %12 = call ptr (ptr, ptr, ...) @PyErr_Format(ptr noundef %10, ptr noundef @.str.27, i32 noundef %11)
  store i32 -1, ptr %2, align 4
  br label %14

13:                                               ; preds = %6
  store i32 0, ptr %2, align 4
  br label %14

14:                                               ; preds = %13, %9
  %15 = load i32, ptr %2, align 4
  ret i32 %15
}

; Function Attrs: nounwind uwtable
define internal ptr @monitoring_set_events_impl(ptr noundef %0, i32 noundef %1, i32 noundef %2) #0 {
  %4 = alloca ptr, align 8
  %5 = alloca ptr, align 8
  %6 = alloca i32, align 4
  %7 = alloca i32, align 4
  store ptr %0, ptr %5, align 8, !tbaa !53
  store i32 %1, ptr %6, align 4, !tbaa !9
  store i32 %2, ptr %7, align 4, !tbaa !9
  %8 = load i32, ptr %6, align 4, !tbaa !9
  %9 = call i32 @check_valid_tool(i32 noundef %8)
  %10 = icmp ne i32 %9, 0
  br i1 %10, label %11, label %12

11:                                               ; preds = %3
  store ptr null, ptr %4, align 8
  br label %51

12:                                               ; preds = %3
  %13 = load i32, ptr %7, align 4, !tbaa !9
  %14 = icmp slt i32 %13, 0
  br i1 %14, label %18, label %15

15:                                               ; preds = %12
  %16 = load i32, ptr %7, align 4, !tbaa !9
  %17 = icmp sge i32 %16, 524288
  br i1 %17, label %18, label %22

18:                                               ; preds = %15, %12
  %19 = load ptr, ptr @PyExc_ValueError, align 8, !tbaa !53
  %20 = load i32, ptr %7, align 4, !tbaa !9
  %21 = call ptr (ptr, ptr, ...) @PyErr_Format(ptr noundef %19, ptr noundef @.str.32, i32 noundef %20)
  store ptr null, ptr %4, align 8
  br label %51

22:                                               ; preds = %15
  %23 = load i32, ptr %7, align 4, !tbaa !9
  %24 = and i32 %23, 196608
  %25 = icmp ne i32 %24, 0
  br i1 %25, label %26, label %33

26:                                               ; preds = %22
  %27 = load i32, ptr %7, align 4, !tbaa !9
  %28 = and i32 %27, 196624
  %29 = icmp ne i32 %28, 196624
  br i1 %29, label %30, label %33

30:                                               ; preds = %26
  %31 = load ptr, ptr @PyExc_ValueError, align 8, !tbaa !53
  %32 = call ptr (ptr, ptr, ...) @PyErr_Format(ptr noundef %31, ptr noundef @.str.33)
  store ptr null, ptr %4, align 8
  br label %51

33:                                               ; preds = %26, %22
  %34 = load i32, ptr %7, align 4, !tbaa !9
  %35 = and i32 %34, -196609
  store i32 %35, ptr %7, align 4, !tbaa !9
  %36 = load i32, ptr %7, align 4, !tbaa !9
  %37 = and i32 %36, 262144
  %38 = icmp ne i32 %37, 0
  br i1 %38, label %39, label %44

39:                                               ; preds = %33
  %40 = load i32, ptr %7, align 4, !tbaa !9
  %41 = and i32 %40, -262145
  store i32 %41, ptr %7, align 4, !tbaa !9
  %42 = load i32, ptr %7, align 4, !tbaa !9
  %43 = or i32 %42, 768
  store i32 %43, ptr %7, align 4, !tbaa !9
  br label %44

44:                                               ; preds = %39, %33
  %45 = load i32, ptr %6, align 4, !tbaa !9
  %46 = load i32, ptr %7, align 4, !tbaa !9
  %47 = call i32 @_PyMonitoring_SetEvents(i32 noundef %45, i32 noundef %46)
  %48 = icmp ne i32 %47, 0
  br i1 %48, label %49, label %50

49:                                               ; preds = %44
  store ptr null, ptr %4, align 8
  br label %51

50:                                               ; preds = %44
  store ptr @_Py_NoneStruct, ptr %4, align 8
  br label %51

51:                                               ; preds = %50, %49, %30, %18, %11
  %52 = load ptr, ptr %4, align 8
  ret ptr %52
}

; Function Attrs: nounwind uwtable
define internal ptr @monitoring_set_events(ptr noundef %0, ptr noundef %1, i64 noundef %2) #0 {
  %4 = alloca ptr, align 8
  %5 = alloca ptr, align 8
  %6 = alloca i64, align 8
  %7 = alloca ptr, align 8
  %8 = alloca i32, align 4
  %9 = alloca i32, align 4
  store ptr %0, ptr %4, align 8, !tbaa !53
  store ptr %1, ptr %5, align 8, !tbaa !44
  store i64 %2, ptr %6, align 8, !tbaa !43
  call void @llvm.lifetime.start.p0(i64 8, ptr %7) #8
  store ptr null, ptr %7, align 8, !tbaa !53
  call void @llvm.lifetime.start.p0(i64 4, ptr %8) #8
  call void @llvm.lifetime.start.p0(i64 4, ptr %9) #8
  %10 = load i64, ptr %6, align 8, !tbaa !43
  %11 = icmp sle i64 2, %10
  br i1 %11, label %12, label %15

12:                                               ; preds = %3
  %13 = load i64, ptr %6, align 8, !tbaa !43
  %14 = icmp sle i64 %13, 2
  br i1 %14, label %20, label %15

15:                                               ; preds = %12, %3
  %16 = load i64, ptr %6, align 8, !tbaa !43
  %17 = call i32 @_PyArg_CheckPositional(ptr noundef @.str.19, i64 noundef %16, i64 noundef 2, i64 noundef 2)
  %18 = icmp ne i32 %17, 0
  br i1 %18, label %20, label %19

19:                                               ; preds = %15
  br label %47

20:                                               ; preds = %15, %12
  %21 = load ptr, ptr %5, align 8, !tbaa !44
  %22 = getelementptr ptr, ptr %21, i64 0
  %23 = load ptr, ptr %22, align 8, !tbaa !53
  %24 = call i32 @PyLong_AsInt(ptr noundef %23)
  store i32 %24, ptr %8, align 4, !tbaa !9
  %25 = load i32, ptr %8, align 4, !tbaa !9
  %26 = icmp eq i32 %25, -1
  br i1 %26, label %27, label %31

27:                                               ; preds = %20
  %28 = call ptr @PyErr_Occurred()
  %29 = icmp ne ptr %28, null
  br i1 %29, label %30, label %31

30:                                               ; preds = %27
  br label %47

31:                                               ; preds = %27, %20
  %32 = load ptr, ptr %5, align 8, !tbaa !44
  %33 = getelementptr ptr, ptr %32, i64 1
  %34 = load ptr, ptr %33, align 8, !tbaa !53
  %35 = call i32 @PyLong_AsInt(ptr noundef %34)
  store i32 %35, ptr %9, align 4, !tbaa !9
  %36 = load i32, ptr %9, align 4, !tbaa !9
  %37 = icmp eq i32 %36, -1
  br i1 %37, label %38, label %42

38:                                               ; preds = %31
  %39 = call ptr @PyErr_Occurred()
  %40 = icmp ne ptr %39, null
  br i1 %40, label %41, label %42

41:                                               ; preds = %38
  br label %47

42:                                               ; preds = %38, %31
  %43 = load ptr, ptr %4, align 8, !tbaa !53
  %44 = load i32, ptr %8, align 4, !tbaa !9
  %45 = load i32, ptr %9, align 4, !tbaa !9
  %46 = call ptr @monitoring_set_events_impl(ptr noundef %43, i32 noundef %44, i32 noundef %45)
  store ptr %46, ptr %7, align 8, !tbaa !53
  br label %47

47:                                               ; preds = %42, %41, %30, %19
  %48 = load ptr, ptr %7, align 8, !tbaa !53
  call void @llvm.lifetime.end.p0(i64 4, ptr %9) #8
  call void @llvm.lifetime.end.p0(i64 4, ptr %8) #8
  call void @llvm.lifetime.end.p0(i64 8, ptr %7) #8
  ret ptr %48
}