; Function Attrs: nounwind uwtable
define internal ptr @monitoring_set_events(ptr readnone captures(none) %0, ptr noundef readonly captures(none) %1, i64 noundef %2) #2 {
  %or.cond = icmp eq i64 %2, 2
  br i1 %or.cond, label %6, label %4

4:                                                ; preds = %3
  %5 = tail call i32 @_PyArg_CheckPositional(ptr noundef nonnull @.str.19, i64 noundef %2, i64 noundef 2, i64 noundef 2) #11
  %.not = icmp eq i32 %5, 0
  br i1 %.not, label %monitoring_set_events_impl.exit, label %6

6:                                                ; preds = %3, %4
  %7 = load ptr, ptr %1, align 8, !tbaa !46
  %8 = tail call i32 @PyLong_AsInt(ptr noundef %7) #11
  %9 = icmp eq i32 %8, -1
  br i1 %9, label %10, label %12

10:                                               ; preds = %6
  %11 = tail call ptr @PyErr_Occurred() #11
  %.not13 = icmp eq ptr %11, null
  br i1 %.not13, label %12, label %monitoring_set_events_impl.exit

12:                                               ; preds = %10, %6
  %13 = getelementptr i8, ptr %1, i64 8
  %14 = load ptr, ptr %13, align 8, !tbaa !46
  %15 = tail call i32 @PyLong_AsInt(ptr noundef %14) #11
  %16 = icmp eq i32 %15, -1
  br i1 %16, label %34, label %.split

.split:                                           ; preds = %12
  %or.cond.i.i = icmp ugt i32 %8, 5
  br i1 %or.cond.i.i, label %check_valid_tool.exit.i, label %19

check_valid_tool.exit.i:                          ; preds = %.split
  %17 = load ptr, ptr @PyExc_ValueError, align 8, !tbaa !46
  %18 = tail call ptr (ptr, ptr, ...) @PyErr_Format(ptr noundef %17, ptr noundef nonnull @.str.27, i32 noundef %8) #11
  br label %monitoring_set_events_impl.exit

19:                                               ; preds = %.split
  %or.cond.i = icmp ugt i32 %15, 524287
  br i1 %or.cond.i, label %20, label %23

20:                                               ; preds = %19
  %21 = load ptr, ptr @PyExc_ValueError, align 8, !tbaa !46
  %22 = tail call ptr (ptr, ptr, ...) @PyErr_Format(ptr noundef %21, ptr noundef nonnull @.str.32, i32 noundef %15) #11
  br label %monitoring_set_events_impl.exit

23:                                               ; preds = %19
  %24 = and i32 %15, 196608
  %.not15.i = icmp eq i32 %24, 0
  %25 = and i32 %15, 196624
  %.not16.i = icmp eq i32 %25, 196624
  %or.cond19.i = or i1 %.not15.i, %.not16.i
  br i1 %or.cond19.i, label %29, label %26

26:                                               ; preds = %23
  %27 = load ptr, ptr @PyExc_ValueError, align 8, !tbaa !46
  %28 = tail call ptr (ptr, ptr, ...) @PyErr_Format(ptr noundef %27, ptr noundef nonnull @.str.33) #11
  br label %monitoring_set_events_impl.exit

29:                                               ; preds = %23
  %30 = and i32 %15, 327679
  %.not17.i = icmp samesign ult i32 %15, 262144
  %31 = and i32 %15, 64767
  %32 = or disjoint i32 %31, 768
  %.0.i = select i1 %.not17.i, i32 %30, i32 %32
  %33 = tail call i32 @_PyMonitoring_SetEvents(i32 noundef %8, i32 noundef %.0.i)
  %.not18.i = icmp eq i32 %33, 0
  %spec.select.i = select i1 %.not18.i, ptr @_Py_NoneStruct, ptr null
  br label %monitoring_set_events_impl.exit

34:                                               ; preds = %12
  %35 = tail call ptr @PyErr_Occurred() #11
  %.not14 = icmp eq ptr %35, null
  br i1 %.not14, label %.split11, label %monitoring_set_events_impl.exit

.split11:                                         ; preds = %34
  %or.cond.i.i15 = icmp ugt i32 %8, 5
  %36 = load ptr, ptr @PyExc_ValueError, align 8, !tbaa !46
  br i1 %or.cond.i.i15, label %check_valid_tool.exit.i17, label %38

check_valid_tool.exit.i17:                        ; preds = %.split11
  %37 = tail call ptr (ptr, ptr, ...) @PyErr_Format(ptr noundef %36, ptr noundef nonnull @.str.27, i32 noundef %8) #11
  br label %monitoring_set_events_impl.exit

38:                                               ; preds = %.split11
  %39 = tail call ptr (ptr, ptr, ...) @PyErr_Format(ptr noundef %36, ptr noundef nonnull @.str.32, i32 noundef -1) #11
  br label %monitoring_set_events_impl.exit

monitoring_set_events_impl.exit:                  ; preds = %38, %check_valid_tool.exit.i17, %29, %26, %20, %check_valid_tool.exit.i, %34, %10, %4
  %.0 = phi ptr [ null, %10 ], [ null, %34 ], [ null, %4 ], [ null, %20 ], [ null, %26 ], [ null, %check_valid_tool.exit.i ], [ %spec.select.i, %29 ], [ null, %check_valid_tool.exit.i17 ], [ null, %38 ]
  ret ptr %.0
}